target datalayout = "e-m:e-p270:32:32-p271:32:32-p272:64:64-i64:64-i128:128-f80:128-n8:16:32:64-S128"
target triple = "x86_64-pc-linux-gnu"

%class.QString = type { %struct.QArrayDataPointer }
%struct.QArrayDataPointer = type { ptr, ptr, i64 }
%class.LteRlcGraphDialog = type <{ %class.WiresharkDialog.base, [3 x i8], ptr, i8, [7 x i8], ptr, %class.QPoint, ptr, %struct.rlc_graph, %class.QMultiMap, %class.QMap, ptr, ptr, ptr, ptr, ptr, i32, [4 x i8] }>
%class.WiresharkDialog.base = type <{ %class.GeometryStateDialog, ptr, i8, [7 x i8], %class.QString, %class.QList, i32, i8 }>
%class.GeometryStateDialog = type { %class.QDialog, %class.QString }
%class.QDialog = type { %class.QWidget }
%class.QWidget = type { %class.QObject, %class.QPaintDevice.base, ptr }
%class.QObject = type { ptr, %class.QScopedPointer }
%class.QScopedPointer = type { ptr }
%class.QPaintDevice.base = type <{ ptr, i16 }>
%class.QList = type { %struct.QArrayDataPointer.0 }
%struct.QArrayDataPointer.0 = type { ptr, ptr, i64 }
%class.QPoint = type { i32, i32 }
%struct.rlc_graph = type { ptr, ptr, i32, i8, i16, i16, i16, i8, i8 }
%class.QMultiMap = type { %"class.QtPrivate::QExplicitlySharedDataPointerV2" }
%"class.QtPrivate::QExplicitlySharedDataPointerV2" = type { ptr }
%class.QMap = type { %"class.QtPrivate::QExplicitlySharedDataPointerV2.1" }
%"class.QtPrivate::QExplicitlySharedDataPointerV2.1" = type { ptr }

; Function Attrs: mustprogress uwtable
define void @_ZN17LteRlcGraphDialog14setChannelInfoEhthtthb(ptr noundef nonnull align 8 dereferenceable(268) %0, i8 noundef zeroext %1, i16 noundef zeroext %2, i8 noundef zeroext %3, i16 noundef zeroext %4, i16 noundef zeroext %5, i8 noundef zeroext %6, i1 noundef zeroext %7) #0 align 2 {
  %9 = alloca ptr, align 8
  %10 = alloca i8, align 1
  %11 = alloca i16, align 2
  %12 = alloca i8, align 1
  %13 = alloca i16, align 2
  %14 = alloca i16, align 2
  %15 = alloca i8, align 1
  %16 = alloca i8, align 1
  store ptr %0, ptr %9, align 8
  store i8 %1, ptr %10, align 1
  store i16 %2, ptr %11, align 2
  store i8 %3, ptr %12, align 1
  store i16 %4, ptr %13, align 2
  store i16 %5, ptr %14, align 2
  store i8 %6, ptr %15, align 1
  %17 = zext i1 %7 to i8
  store i8 %17, ptr %16, align 1
  %18 = load ptr, ptr %9, align 8
  %19 = load i8, ptr %10, align 1
  %20 = getelementptr inbounds %class.LteRlcGraphDialog, ptr %18, i32 0, i32 8
  %21 = getelementptr inbounds %struct.rlc_graph, ptr %20, i32 0, i32 3
  store i8 %19, ptr %21, align 4
  %22 = load i16, ptr %11, align 2
  %23 = getelementptr inbounds %class.LteRlcGraphDialog, ptr %18, i32 0, i32 8
  %24 = getelementptr inbounds %struct.rlc_graph, ptr %23, i32 0, i32 4
  store i16 %22, ptr %24, align 2
  %25 = load i8, ptr %12, align 1
  %26 = getelementptr inbounds %class.LteRlcGraphDialog, ptr %18, i32 0, i32 8
  %27 = getelementptr inbounds %struct.rlc_graph, ptr %26, i32 0, i32 7
  store i8 %25, ptr %27, align 4
  %28 = load i16, ptr %13, align 2
  %29 = getelementptr inbounds %class.LteRlcGraphDialog, ptr %18, i32 0, i32 8
  %30 = getelementptr inbounds %struct.rlc_graph, ptr %29, i32 0, i32 5
  store i16 %28, ptr %30, align 8
  %31 = load i16, ptr %14, align 2
  %32 = getelementptr inbounds %class.LteRlcGraphDialog, ptr %18, i32 0, i32 8
  %33 = getelementptr inbounds %struct.rlc_graph, ptr %32, i32 0, i32 6
  store i16 %31, ptr %33, align 2
  %34 = getelementptr inbounds %class.LteRlcGraphDialog, ptr %18, i32 0, i32 8
  %35 = getelementptr inbounds %struct.rlc_graph, ptr %34, i32 0, i32 2
  store i32 1, ptr %35, align 8
  %36 = load i8, ptr %15, align 1
  %37 = getelementptr inbounds %class.LteRlcGraphDialog, ptr %18, i32 0, i32 8
  %38 = getelementptr inbounds %struct.rlc_graph, ptr %37, i32 0, i32 8
  store i8 %36, ptr %38, align 1
  %39 = load i8, ptr %16, align 1
  %40 = trunc i8 %39 to i1
  call void @_ZN17LteRlcGraphDialog13completeGraphEb(ptr noundef nonnull align 8 dereferenceable(268) %18, i1 noundef zeroext %40)
  ret void
}