; Function Attrs: mustprogress uwtable
define void @_ZN17LteRlcGraphDialog14setChannelInfoEhthtthb(ptr noundef nonnull align 8 dereferenceable(268) %0, i8 noundef zeroext %1, i16 noundef zeroext %2, i8 noundef zeroext %3, i16 noundef zeroext %4, i16 noundef zeroext %5, i8 noundef zeroext %6, i1 noundef zeroext %7) local_unnamed_addr #0 align 2 {
  %9 = getelementptr inbounds i8, ptr %0, i64 196
  store i8 %1, ptr %9, align 4
  %10 = getelementptr inbounds i8, ptr %0, i64 198
  store i16 %2, ptr %10, align 2
  %11 = getelementptr inbounds i8, ptr %0, i64 204
  store i8 %3, ptr %11, align 4
  %12 = getelementptr inbounds i8, ptr %0, i64 200
  store i16 %4, ptr %12, align 8
  %13 = getelementptr inbounds i8, ptr %0, i64 202
  store i16 %5, ptr %13, align 2
  %14 = getelementptr inbounds i8, ptr %0, i64 192
  store i32 1, ptr %14, align 8
  %15 = getelementptr inbounds i8, ptr %0, i64 205
  store i8 %6, ptr %15, align 1
  tail call void @_ZN17LteRlcGraphDialog13completeGraphEb(ptr noundef nonnull align 8 dereferenceable(268) %0, i1 noundef zeroext %7)
  ret void
}